target datalayout = "e-m:e-p270:32:32-p271:32:32-p272:64:64-i64:64-i128:128-f80:128-n8:16:32:64-S128"
target triple = "x86_64-pc-linux-gnu"

@.str.25 = private unnamed_addr constant [11 x i8] c"\09(%u): %s\0A\00", align 1
@.str.26 = private unnamed_addr constant [11 x i8] c"\09%d bytes\0A\00", align 1
@.str.27 = private unnamed_addr constant [5 x i8] c"\09%s\0A\00", align 1
@.str.28 = private unnamed_addr constant [26 x i8] c"\09%08x checksum, %u bytes\0A\00", align 1
@.str.29 = private unnamed_addr constant [15 x i8] c"\09(%u): 0x%llx\0A\00", align 1
@.str.30 = private unnamed_addr constant [17 x i8] c"\09(%u): %d.%06us\0A\00", align 1

; Function Attrs: inlinehint nounwind uwtable
define internal void @ev_debug(i32 noundef %0, ptr noundef %1, i32 noundef %2) #5 {
  %4 = alloca i32, align 4
  %5 = alloca ptr, align 8
  %6 = alloca i32, align 4
  %7 = alloca ptr, align 8
  store i32 %0, ptr %4, align 4, !tbaa !3
  store ptr %1, ptr %5, align 8, !tbaa !26
  store i32 %2, ptr %6, align 4, !tbaa !3
  %8 = load i32, ptr %4, align 4, !tbaa !3
  switch i32 %8, label %40 [
    i32 1, label %9
    i32 2, label %13
    i32 3, label %21
    i32 4, label %26
    i32 5, label %30
  ]

9:                                                ; preds = %3
  %10 = load i32, ptr %6, align 4, !tbaa !3
  %11 = load ptr, ptr %5, align 8, !tbaa !26
  %12 = load ptr, ptr %11, align 8, !tbaa !23
  call void (ptr, ...) @cli_dbgmsg(ptr noundef @.str.25, i32 noundef %10, ptr noundef %12)
  br label %41

13:                                               ; preds = %3
  call void @llvm.lifetime.start.p0(i64 8, ptr %7) #8
  %14 = load ptr, ptr %5, align 8, !tbaa !26
  %15 = load ptr, ptr %14, align 8, !tbaa !23
  %16 = load i32, ptr %6, align 4, !tbaa !3
  %17 = call ptr @cli_str2hex(ptr noundef %15, i32 noundef %16)
  store ptr %17, ptr %7, align 8, !tbaa !20
  %18 = load i32, ptr %6, align 4, !tbaa !3
  call void (ptr, ...) @cli_dbgmsg(ptr noundef @.str.26, i32 noundef %18)
  %19 = load ptr, ptr %7, align 8, !tbaa !20
  call void (ptr, ...) @cli_dbgmsg(ptr noundef @.str.27, ptr noundef %19)
  %20 = load ptr, ptr %7, align 8, !tbaa !20
  call void @free(ptr noundef %20) #8
  call void @llvm.lifetime.end.p0(i64 8, ptr %7) #8
  br label %41

21:                                               ; preds = %3
  %22 = load ptr, ptr %5, align 8, !tbaa !26
  %23 = load i64, ptr %22, align 8, !tbaa !23
  %24 = trunc i64 %23 to i32
  %25 = load i32, ptr %6, align 4, !tbaa !3
  call void (ptr, ...) @cli_dbgmsg(ptr noundef @.str.28, i32 noundef %24, i32 noundef %25)
  br label %41

26:                                               ; preds = %3
  %27 = load i32, ptr %6, align 4, !tbaa !3
  %28 = load ptr, ptr %5, align 8, !tbaa !26
  %29 = load i64, ptr %28, align 8, !tbaa !23
  call void (ptr, ...) @cli_dbgmsg(ptr noundef @.str.29, i32 noundef %27, i64 noundef %29)
  br label %41

30:                                               ; preds = %3
  %31 = load i32, ptr %6, align 4, !tbaa !3
  %32 = load ptr, ptr %5, align 8, !tbaa !26
  %33 = load i64, ptr %32, align 8, !tbaa !23
  %34 = udiv i64 %33, 1000000
  %35 = trunc i64 %34 to i32
  %36 = load ptr, ptr %5, align 8, !tbaa !26
  %37 = load i64, ptr %36, align 8, !tbaa !23
  %38 = urem i64 %37, 1000000
  %39 = trunc i64 %38 to i32
  call void (ptr, ...) @cli_dbgmsg(ptr noundef @.str.30, i32 noundef %31, i32 noundef %35, i32 noundef %39)
  br label %41

40:                                               ; preds = %3
  br label %41

41:                                               ; preds = %40, %30, %26, %21, %13, %9
  ret void
}