; Function Attrs: inlinehint nounwind uwtable
define internal fastcc void @ev_debug(i32 noundef range(i32 0, 256) %0, ptr noundef readonly captures(none) %1, i32 noundef %2) unnamed_addr #9 {
  %trunc = trunc nuw i32 %0 to i8
  switch i8 %trunc, label %20 [
    i8 1, label %4
    i8 2, label %6
    i8 3, label %9
    i8 4, label %12
    i8 5, label %14
  ]

4:                                                ; preds = %3
  %5 = load ptr, ptr %1, align 8, !tbaa !17
  tail call void (ptr, ...) @cli_dbgmsg(ptr noundef nonnull @.str.25, i32 noundef %2, ptr noundef %5) #14
  br label %20

6:                                                ; preds = %3
  %7 = load ptr, ptr %1, align 8, !tbaa !17
  %8 = tail call ptr @cli_str2hex(ptr noundef %7, i32 noundef %2) #14
  tail call void (ptr, ...) @cli_dbgmsg(ptr noundef nonnull @.str.26, i32 noundef %2) #14
  tail call void (ptr, ...) @cli_dbgmsg(ptr noundef nonnull @.str.27, ptr noundef %8) #14
  tail call void @free(ptr noundef %8) #14
  br label %20

9:                                                ; preds = %3
  %10 = load i64, ptr %1, align 8, !tbaa !17
  %11 = trunc i64 %10 to i32
  tail call void (ptr, ...) @cli_dbgmsg(ptr noundef nonnull @.str.28, i32 noundef %11, i32 noundef %2) #14
  br label %20

12:                                               ; preds = %3
  %13 = load i64, ptr %1, align 8, !tbaa !17
  tail call void (ptr, ...) @cli_dbgmsg(ptr noundef nonnull @.str.29, i32 noundef %2, i64 noundef %13) #14
  br label %20

14:                                               ; preds = %3
  %15 = load i64, ptr %1, align 8, !tbaa !17
  %16 = udiv i64 %15, 1000000
  %17 = trunc i64 %16 to i32
  %18 = urem i64 %15, 1000000
  %19 = trunc nuw nsw i64 %18 to i32
  tail call void (ptr, ...) @cli_dbgmsg(ptr noundef nonnull @.str.30, i32 noundef %2, i32 noundef %17, i32 noundef %19) #14
  br label %20

20:                                               ; preds = %3, %14, %12, %9, %6, %4
  ret void
}